; Function Attrs: mustprogress nofree nosync nounwind willreturn memory(none) uwtable
define i64 @av_div_q(i64 %0, i64 %1) local_unnamed_addr #3 {
  %3 = alloca %struct.AVRational, align 8
  %.sroa.0.0.insert.insert = tail call i64 @llvm.fshl.i64(i64 %1, i64 %1, i64 32)
  call void @llvm.lifetime.start.p0(i64 8, ptr nonnull %3)
  store i64 %0, ptr %3, align 8
  %4 = getelementptr inbounds nuw i8, ptr %3, i64 4
  %sext3.i = shl i64 %0, 32
  %5 = ashr exact i64 %sext3.i, 32
  %sext.i = shl i64 %.sroa.0.0.insert.insert, 32
  %6 = ashr exact i64 %sext.i, 32
  %7 = mul nsw i64 %6, %5
  %8 = ashr i64 %0, 32
  %9 = ashr i64 %.sroa.0.0.insert.insert, 32
  %10 = mul nsw i64 %9, %8
  %11 = call i32 @av_reduce(ptr noundef nonnull %3, ptr noundef nonnull %4, i64 noundef %7, i64 noundef %10, i64 noundef 2147483647)
  %.sroa.01.0.copyload.i = load i64, ptr %3, align 8
  call void @llvm.lifetime.end.p0(i64 8, ptr nonnull %3)
  ret i64 %.sroa.01.0.copyload.i
}